; Function Attrs: mustprogress uwtable
define hidden noundef zeroext i1 @_ZN4cvc58internal6theory5arith6linear25debugSelectedErrorDroppedERKNS3_10UpdateInfoEii(ptr nocapture noundef nonnull readonly align 8 dereferenceable(204) %selected, i32 noundef %prevErrorSize, i32 noundef %currErrorSize) local_unnamed_addr #3 {
entry:
  %d_foundConflict.i = getelementptr inbounds i8, ptr %selected, i64 80
  %0 = load i8, ptr %d_foundConflict.i, align 8
  %1 = and i8 %0, 1
  %tobool.i.not = icmp eq i8 %1, 0
  br i1 %tobool.i.not, label %lor.rhs, label %lor.end

lor.rhs:                                          ; preds = %entry
  %_M_engaged.i.i.i = getelementptr inbounds i8, ptr %selected, i64 88
  %2 = load i8, ptr %_M_engaged.i.i.i, align 8
  %3 = and i8 %2, 1
  %tobool.i.not.i.i = icmp eq i8 %3, 0
  br i1 %tobool.i.not.i.i, label %if.end.i.i, label %_ZNK4cvc58internal6theory5arith6linear10UpdateInfo12errorsChangeEv.exit

if.end.i.i:                                       ; preds = %lor.rhs
  tail call void @_ZSt27__throw_bad_optional_accessv() #24
  unreachable

_ZNK4cvc58internal6theory5arith6linear10UpdateInfo12errorsChangeEv.exit: ; preds = %lor.rhs
  %sub = sub nsw i32 %currErrorSize, %prevErrorSize
  %d_errorsChange.i = getelementptr inbounds i8, ptr %selected, i64 84
  %4 = load i32, ptr %d_errorsChange.i, align 4
  %cmp = icmp eq i32 %sub, %4
  br label %lor.end

lor.end:                                          ; preds = %_ZNK4cvc58internal6theory5arith6linear10UpdateInfo12errorsChangeEv.exit, %entry
  %5 = phi i1 [ true, %entry ], [ %cmp, %_ZNK4cvc58internal6theory5arith6linear10UpdateInfo12errorsChangeEv.exit ]
  ret i1 %5
}